Certificate:
    Data:
        Version: 3 (0x2)
        Serial Number: 46 (0x2e)
    Signature Algorithm: sha256WithRSAEncryption
        Issuer: C=US, ST=OH, L=Cincinnati, O=CDX Project, OU=Dept. Elec. Eng. & Comp. Sys., CN=CDX Project CA/name=EasyRSA/emailAddress=franco@gauss.ececs.uc.edu
        Validity
            Not Before: Nov 19 20:58:45 2017 GMT
            Not After : Nov 17 20:58:45 2027 GMT
        Subject: C=US, ST=OH, L=Cincinnati, O=CDX Project, OU=Dept. Elec. Eng. & Comp. Sys., CN=red-02/name=EasyRSA/emailAddress=franco@gauss.ececs.uc.edu
        Subject Public Key Info:
            Public Key Algorithm: rsaEncryption
                Public-Key: (2048 bit)
                Modulus:
                    00:d9:cb:4c:88:d9:6e:4a:de:3d:94:df:2f:e6:3f:
                    89:4e:76:56:0d:e9:be:99:ed:05:ad:d8:1f:5e:8d:
                    da:e3:af:c2:7d:44:8a:4c:b3:49:6d:16:41:83:84:
                    73:f1:e5:c5:82:e9:d4:74:0c:d0:69:81:28:f7:87:
                    a3:8d:7e:fb:ca:f5:3e:27:11:b2:03:04:67:1d:2d:
                    83:b0:5d:cd:b8:59:09:2e:8d:54:59:48:54:19:03:
                    6b:3f:2e:cf:4f:37:9e:de:10:44:6a:1f:9b:72:c5:
                    ba:38:0d:58:e0:83:c9:16:70:4f:62:79:14:68:b7:
                    d9:ce:4a:85:e1:4e:8c:ba:07:5f:12:63:0e:2b:a9:
                    0e:eb:06:61:b4:60:db:b9:1a:5b:37:d5:10:44:74:
                    49:7e:97:19:19:90:e4:6c:39:eb:db:bb:b8:ee:50:
                    12:fd:da:82:8c:d8:35:47:d7:51:03:a6:d8:18:7c:
                    a3:f0:60:4b:c0:89:4b:d4:81:dc:dd:10:d8:ca:d0:
                    ec:87:5a:23:df:a0:87:1a:54:bf:2a:6c:ed:49:5b:
                    99:d6:78:ca:bf:1c:a4:19:49:f0:ad:aa:68:15:3e:
                    80:6d:14:90:6a:d0:e1:02:4e:18:39:02:b0:de:68:
                    10:b9:b3:eb:69:5d:d3:d9:9a:1c:92:9e:46:b0:21:
                    47:41
                Exponent: 65537 (0x10001)
        X509v3 extensions:
            X509v3 Basic Constraints: 
                CA:FALSE
            Netscape Comment: 
                Easy-RSA Generated Certificate
            X509v3 Subject Key Identifier: 
                B0:9D:FB:5C:F1:74:7E:51:1B:46:C9:F2:66:89:0F:9E:BB:E1:8D:23
            X509v3 Authority Key Identifier: 
                keyid:13:33:A4:6E:C5:22:56:36:9C:FA:8D:0C:08:AA:29:32:2A:F8:CB:E6
                DirName:/C=US/ST=OH/L=Cincinnati/O=CDX Project/OU=Dept. Elec. Eng. & Comp. Sys./CN=CDX Project CA/name=EasyRSA/emailAddress=franco@gauss.ececs.uc.edu
                serial:BA:A7:AB:B8:0A:47:F3:70

            X509v3 Extended Key Usage: 
                TLS Web Client Authentication
            X509v3 Key Usage: 
                Digital Signature
            X509v3 Subject Alternative Name: 
                DNS:red-02
    Signature Algorithm: sha256WithRSAEncryption
         7a:e1:e4:ef:f0:19:5d:0c:c4:2e:9d:fd:77:08:fb:4a:32:6e:
         5c:f3:4f:66:0d:fa:ac:33:b6:60:26:df:d2:c9:80:95:25:74:
         a1:dc:0a:88:f6:86:7e:2b:54:5c:5d:b5:12:9d:5e:b8:d3:03:
         75:04:db:a7:0a:b0:cf:f9:2a:d5:a4:78:c9:7f:ca:c2:6f:c5:
         52:da:f8:f4:d0:51:f9:62:42:f4:75:b5:1c:b6:3f:0b:cb:01:
         20:fe:56:de:4f:73:02:3c:52:8b:66:07:62:c2:81:f8:eb:80:
         31:a8:b2:40:60:55:fb:b0:a4:22:fe:cd:00:13:c7:11:25:89:
         ca:78:bf:12:12:53:d2:1c:28:1c:bc:be:53:e5:a9:33:23:41:
         fb:91:b3:4e:16:5c:6f:7a:46:bb:f7:da:bb:e9:6d:8c:b8:d5:
         a5:90:9b:e7:c3:a4:6b:e4:62:bb:1e:e7:fb:ad:e0:2f:50:58:
         2a:e6:6b:66:e5:15:7f:75:a2:82:c1:83:a6:1a:bb:a5:15:f7:
         ce:08:44:0c:ab:68:75:38:d8:28:89:46:9f:b7:48:62:25:58:
         c2:38:6a:98:f5:14:cb:16:40:0d:f3:e3:56:45:33:a1:83:af:
         ac:d5:92:1e:1e:69:f2:d5:64:fa:f5:72:44:96:39:84:9c:eb:
         5f:43:0a:75
-----BEGIN CERTIFICATE-----
MIIFhzCCBG+gAwIBAgIBLjANBgkqhkiG9w0BAQsFADCBwjELMAkGA1UEBhMCVVMx
CzAJBgNVBAgTAk9IMRMwEQYDVQQHEwpDaW5jaW5uYXRpMRQwEgYDVQQKEwtDRFgg
UHJvamVjdDEmMCQGA1UECxQdRGVwdC4gRWxlYy4gRW5nLiAmIENvbXAuIFN5cy4x
FzAVBgNVBAMTDkNEWCBQcm9qZWN0IENBMRAwDgYDVQQpEwdFYXN5UlNBMSgwJgYJ
KoZIhvcNAQkBFhlmcmFuY29AZ2F1c3MuZWNlY3MudWMuZWR1MB4XDTE3MTExOTIw
NTg0NVoXDTI3MTExNzIwNTg0NVowgboxCzAJBgNVBAYTAlVTMQswCQYDVQQIEwJP
SDETMBEGA1UEBxMKQ2luY2lubmF0aTEUMBIGA1UEChMLQ0RYIFByb2plY3QxJjAk
BgNVBAsUHURlcHQuIEVsZWMuIEVuZy4gJiBDb21wLiBTeXMuMQ8wDQYDVQQDEwZy
ZWQtMDIxEDAOBgNVBCkTB0Vhc3lSU0ExKDAmBgkqhkiG9w0BCQEWGWZyYW5jb0Bn
YXVzcy5lY2Vjcy51Yy5lZHUwggEiMA0GCSqGSIb3DQEBAQUAA4IBDwAwggEKAoIB
AQDZy0yI2W5K3j2U3y/mP4lOdlYN6b6Z7QWt2B9ejdrjr8J9RIpMs0ltFkGDhHPx
5cWC6dR0DNBpgSj3h6ONfvvK9T4nEbIDBGcdLYOwXc24WQkujVRZSFQZA2s/Ls9P
N57eEERqH5tyxbo4DVjgg8kWcE9ieRRot9nOSoXhToy6B18SYw4rqQ7rBmG0YNu5
Gls31RBEdEl+lxkZkORsOevbu7juUBL92oKM2DVH11EDptgYfKPwYEvAiUvUgdzd
ENjK0OyHWiPfoIcaVL8qbO1JW5nWeMq/HKQZSfCtqmgVPoBtFJBq0OECThg5ArDe
aBC5s+tpXdPZmhySnkawIUdBAgMBAAGjggGMMIIBiDAJBgNVHRMEAjAAMC0GCWCG
SAGG+EIBDQQgFh5FYXN5LVJTQSBHZW5lcmF0ZWQgQ2VydGlmaWNhdGUwHQYDVR0O
BBYEFLCd+1zxdH5RG0bJ8maJD5674Y0jMIH3BgNVHSMEge8wgeyAFBMzpG7FIlY2
nPqNDAiqKTIq+MvmoYHIpIHFMIHCMQswCQYDVQQGEwJVUzELMAkGA1UECBMCT0gx
EzARBgNVBAcTCkNpbmNpbm5hdGkxFDASBgNVBAoTC0NEWCBQcm9qZWN0MSYwJAYD
VQQLFB1EZXB0LiBFbGVjLiBFbmcuICYgQ29tcC4gU3lzLjEXMBUGA1UEAxMOQ0RY
IFByb2plY3QgQ0ExEDAOBgNVBCkTB0Vhc3lSU0ExKDAmBgkqhkiG9w0BCQEWGWZy
YW5jb0BnYXVzcy5lY2Vjcy51Yy5lZHWCCQC6p6u4CkfzcDATBgNVHSUEDDAKBggr
BgEFBQcDAjALBgNVHQ8EBAMCB4AwEQYDVR0RBAowCIIGcmVkLTAyMA0GCSqGSIb3
DQEBCwUAA4IBAQB64eTv8BldDMQunf13CPtKMm5c809mDfqsM7ZgJt/SyYCVJXSh
3AqI9oZ+K1RcXbUSnV640wN1BNunCrDP+SrVpHjJf8rCb8VS2vj00FH5YkL0dbUc
tj8LywEg/lbeT3MCPFKLZgdiwoH464AxqLJAYFX7sKQi/s0AE8cRJYnKeL8SElPS
HCgcvL5T5akzI0H7kbNOFlxveka799q76W2MuNWlkJvnw6Rr5GK7Huf7reAvUFgq
5mtm5RV/daKCwYOmGrulFffOCEQMq2h1ONgoiUaft0hiJVjCOGqY9RTLFkAN8+NW
RTOhg6+s1ZIeHmny1WT69XJEljmEnOtfQwp1
-----END CERTIFICATE-----
