Certificate:
    Data:
        Version: 3 (0x2)
        Serial Number: 44 (0x2c)
    Signature Algorithm: sha256WithRSAEncryption
        Issuer: C=US, ST=OH, L=Cincinnati, O=CDX Project, OU=Dept. Elec. Eng. & Comp. Sys., CN=CDX Project CA/name=EasyRSA/emailAddress=franco@gauss.ececs.uc.edu
        Validity
            Not Before: Nov 19 20:58:25 2017 GMT
            Not After : Nov 17 20:58:25 2027 GMT
        Subject: C=US, ST=OH, L=Cincinnati, O=CDX Project, OU=Dept. Elec. Eng. & Comp. Sys., CN=red-00/name=EasyRSA/emailAddress=franco@gauss.ececs.uc.edu
        Subject Public Key Info:
            Public Key Algorithm: rsaEncryption
                Public-Key: (2048 bit)
                Modulus:
                    00:ab:50:c5:28:09:b2:41:2b:70:23:3f:79:35:b4:
                    c7:0d:c5:1d:76:33:5b:16:b4:44:1b:c1:85:21:f3:
                    25:bd:f4:5d:89:dc:c2:d6:cc:4b:93:be:bc:6a:25:
                    63:8b:95:06:3f:21:50:30:34:32:25:28:5b:28:d8:
                    5c:d6:94:db:bc:52:58:52:d7:50:36:f7:7e:89:4d:
                    72:6d:ae:20:67:55:60:b3:93:68:c6:c9:f1:32:53:
                    7c:d4:8b:fe:ce:05:cc:f4:68:32:7f:93:af:ac:37:
                    f7:59:3f:46:88:cf:80:f4:ff:d0:53:2f:eb:5c:12:
                    a5:13:e0:ec:db:78:3e:d5:8d:06:09:15:ad:f8:4b:
                    48:6e:80:2a:3f:ed:c5:37:84:c5:53:39:7c:7d:df:
                    c8:83:9e:88:8a:5c:7a:cb:6d:4e:10:4e:e0:3c:ca:
                    2f:4a:50:ae:52:7e:c0:ea:d1:78:24:cb:3e:f6:98:
                    5d:15:87:bf:70:31:19:70:f7:18:60:56:90:27:c8:
                    fa:c1:a2:8c:a2:ca:c8:6b:ff:ce:2c:06:78:4c:46:
                    f0:34:f1:56:d5:41:04:af:cb:b8:a1:c0:b6:1e:99:
                    88:7b:bb:b6:0a:bf:bb:8d:da:7a:01:46:ce:51:1e:
                    70:1d:a9:6f:23:b9:42:02:11:df:19:20:a4:de:65:
                    66:3f
                Exponent: 65537 (0x10001)
        X509v3 extensions:
            X509v3 Basic Constraints: 
                CA:FALSE
            Netscape Comment: 
                Easy-RSA Generated Certificate
            X509v3 Subject Key Identifier: 
                B6:74:28:67:1F:97:E5:03:1C:76:32:79:E1:37:BA:27:85:8D:40:4B
            X509v3 Authority Key Identifier: 
                keyid:13:33:A4:6E:C5:22:56:36:9C:FA:8D:0C:08:AA:29:32:2A:F8:CB:E6
                DirName:/C=US/ST=OH/L=Cincinnati/O=CDX Project/OU=Dept. Elec. Eng. & Comp. Sys./CN=CDX Project CA/name=EasyRSA/emailAddress=franco@gauss.ececs.uc.edu
                serial:BA:A7:AB:B8:0A:47:F3:70

            X509v3 Extended Key Usage: 
                TLS Web Client Authentication
            X509v3 Key Usage: 
                Digital Signature
            X509v3 Subject Alternative Name: 
                DNS:red-00
    Signature Algorithm: sha256WithRSAEncryption
         5d:12:a6:1e:ec:22:63:1a:e0:a6:72:de:e1:51:0c:c9:a5:22:
         06:84:90:ee:4e:f0:02:1e:cd:be:65:06:c8:32:09:90:04:bb:
         9e:c0:f0:10:61:eb:8d:f1:70:b2:f2:49:79:b1:58:60:b9:76:
         3b:ba:31:c7:24:07:f5:99:6a:9c:41:f0:4c:37:07:62:9a:9e:
         26:89:9a:0d:6c:be:78:5a:53:3e:2a:0d:77:9d:1a:d1:5f:fd:
         3c:ad:41:83:bc:d5:a7:59:0c:3b:e8:31:62:70:f1:75:d6:0a:
         35:20:50:83:7f:68:07:52:4a:dd:ba:fb:6e:e2:d4:57:19:7e:
         f7:4a:dc:71:ea:c9:c8:9c:5a:22:73:d1:96:1e:20:48:28:a0:
         f4:63:45:6d:f7:78:b6:74:a3:4f:2c:fd:67:2c:f2:2e:5b:ae:
         8b:4f:76:a4:6c:d6:9a:22:8c:41:ab:86:65:d6:c2:06:f4:7b:
         aa:b3:8b:e2:62:33:54:c0:d7:e1:30:16:21:d2:cc:2b:bf:41:
         25:24:57:7c:6a:3b:89:56:ee:61:23:a4:db:99:2f:ff:62:d1:
         b5:fa:67:54:4c:73:b6:c5:b5:8c:3f:62:91:ab:04:90:03:5c:
         20:c2:ba:cc:07:f1:26:e2:32:5a:6e:45:f0:6e:a3:12:a0:4a:
         73:30:1a:3d
-----BEGIN CERTIFICATE-----
MIIFhzCCBG+gAwIBAgIBLDANBgkqhkiG9w0BAQsFADCBwjELMAkGA1UEBhMCVVMx
CzAJBgNVBAgTAk9IMRMwEQYDVQQHEwpDaW5jaW5uYXRpMRQwEgYDVQQKEwtDRFgg
UHJvamVjdDEmMCQGA1UECxQdRGVwdC4gRWxlYy4gRW5nLiAmIENvbXAuIFN5cy4x
FzAVBgNVBAMTDkNEWCBQcm9qZWN0IENBMRAwDgYDVQQpEwdFYXN5UlNBMSgwJgYJ
KoZIhvcNAQkBFhlmcmFuY29AZ2F1c3MuZWNlY3MudWMuZWR1MB4XDTE3MTExOTIw
NTgyNVoXDTI3MTExNzIwNTgyNVowgboxCzAJBgNVBAYTAlVTMQswCQYDVQQIEwJP
SDETMBEGA1UEBxMKQ2luY2lubmF0aTEUMBIGA1UEChMLQ0RYIFByb2plY3QxJjAk
BgNVBAsUHURlcHQuIEVsZWMuIEVuZy4gJiBDb21wLiBTeXMuMQ8wDQYDVQQDEwZy
ZWQtMDAxEDAOBgNVBCkTB0Vhc3lSU0ExKDAmBgkqhkiG9w0BCQEWGWZyYW5jb0Bn
YXVzcy5lY2Vjcy51Yy5lZHUwggEiMA0GCSqGSIb3DQEBAQUAA4IBDwAwggEKAoIB
AQCrUMUoCbJBK3AjP3k1tMcNxR12M1sWtEQbwYUh8yW99F2J3MLWzEuTvrxqJWOL
lQY/IVAwNDIlKFso2FzWlNu8UlhS11A2936JTXJtriBnVWCzk2jGyfEyU3zUi/7O
Bcz0aDJ/k6+sN/dZP0aIz4D0/9BTL+tcEqUT4OzbeD7VjQYJFa34S0hugCo/7cU3
hMVTOXx938iDnoiKXHrLbU4QTuA8yi9KUK5SfsDq0Xgkyz72mF0Vh79wMRlw9xhg
VpAnyPrBooyiyshr/84sBnhMRvA08VbVQQSvy7ihwLYemYh7u7YKv7uN2noBRs5R
HnAdqW8juUICEd8ZIKTeZWY/AgMBAAGjggGMMIIBiDAJBgNVHRMEAjAAMC0GCWCG
SAGG+EIBDQQgFh5FYXN5LVJTQSBHZW5lcmF0ZWQgQ2VydGlmaWNhdGUwHQYDVR0O
BBYEFLZ0KGcfl+UDHHYyeeE3uieFjUBLMIH3BgNVHSMEge8wgeyAFBMzpG7FIlY2
nPqNDAiqKTIq+MvmoYHIpIHFMIHCMQswCQYDVQQGEwJVUzELMAkGA1UECBMCT0gx
EzARBgNVBAcTCkNpbmNpbm5hdGkxFDASBgNVBAoTC0NEWCBQcm9qZWN0MSYwJAYD
VQQLFB1EZXB0LiBFbGVjLiBFbmcuICYgQ29tcC4gU3lzLjEXMBUGA1UEAxMOQ0RY
IFByb2plY3QgQ0ExEDAOBgNVBCkTB0Vhc3lSU0ExKDAmBgkqhkiG9w0BCQEWGWZy
YW5jb0BnYXVzcy5lY2Vjcy51Yy5lZHWCCQC6p6u4CkfzcDATBgNVHSUEDDAKBggr
BgEFBQcDAjALBgNVHQ8EBAMCB4AwEQYDVR0RBAowCIIGcmVkLTAwMA0GCSqGSIb3
DQEBCwUAA4IBAQBdEqYe7CJjGuCmct7hUQzJpSIGhJDuTvACHs2+ZQbIMgmQBLue
wPAQYeuN8XCy8kl5sVhguXY7ujHHJAf1mWqcQfBMNwdimp4miZoNbL54WlM+Kg13
nRrRX/08rUGDvNWnWQw76DFicPF11go1IFCDf2gHUkrduvtu4tRXGX73Stxx6snI
nFoic9GWHiBIKKD0Y0Vt93i2dKNPLP1nLPIuW66LT3akbNaaIoxBq4Zl1sIG9Huq
s4viYjNUwNfhMBYh0swrv0ElJFd8ajuJVu5hI6TbmS//YtG1+mdUTHO2xbWMP2KR
qwSQA1wgwrrMB/Em4jJabkXwbqMSoEpzMBo9
-----END CERTIFICATE-----
