Certificate:
    Data:
        Version: 3 (0x2)
        Serial Number: 48 (0x30)
    Signature Algorithm: sha256WithRSAEncryption
        Issuer: C=US, ST=OH, L=Cincinnati, O=CDX Project, OU=Dept. Elec. Eng. & Comp. Sys., CN=CDX Project CA/name=EasyRSA/emailAddress=franco@gauss.ececs.uc.edu
        Validity
            Not Before: Nov 19 20:59:02 2017 GMT
            Not After : Nov 17 20:59:02 2027 GMT
        Subject: C=US, ST=OH, L=Cincinnati, O=CDX Project, OU=Dept. Elec. Eng. & Comp. Sys., CN=red-04/name=EasyRSA/emailAddress=franco@gauss.ececs.uc.edu
        Subject Public Key Info:
            Public Key Algorithm: rsaEncryption
                Public-Key: (2048 bit)
                Modulus:
                    00:a9:96:2f:a5:f3:42:48:f4:ad:0d:4a:c0:6d:af:
                    69:63:d3:77:0d:a6:7b:4e:cd:bc:7d:eb:43:86:99:
                    62:8a:16:22:6f:64:5a:70:58:d6:7a:9a:4d:cf:65:
                    24:6d:9b:16:9f:cf:79:42:73:6c:8a:52:42:24:86:
                    7a:56:79:dd:ec:cb:73:bf:3b:66:e0:1f:1f:1d:9b:
                    a9:7a:6a:e5:0b:bc:37:e0:0d:11:7b:3f:2b:c3:5d:
                    c1:1a:3c:f9:50:d2:0b:90:af:93:27:00:6c:ba:f3:
                    4c:25:c3:48:b8:a4:49:84:c5:45:9c:bf:48:a9:ce:
                    07:a3:d0:7e:6b:3d:03:a5:19:6d:d7:3a:d4:da:a3:
                    a5:da:15:3e:ea:1e:56:8e:31:90:3d:44:8b:d4:9f:
                    ca:b7:37:b7:fa:e6:47:67:16:c1:5e:16:66:64:fb:
                    ac:d7:a3:d8:9d:9a:af:18:63:f0:f9:2e:7d:9e:3b:
                    0d:09:89:bc:b8:5d:ec:af:1d:0a:f2:a4:66:b5:76:
                    13:d6:f6:fc:88:f3:ff:28:6b:ac:fb:0b:91:9a:3e:
                    b7:0d:12:50:45:a4:30:1b:cc:a7:41:42:15:d3:c5:
                    25:f5:60:3d:d5:5b:d2:7d:05:fc:ae:6d:c8:21:78:
                    e8:d9:ac:63:63:e1:db:c1:d9:33:92:16:be:bd:6f:
                    48:39
                Exponent: 65537 (0x10001)
        X509v3 extensions:
            X509v3 Basic Constraints: 
                CA:FALSE
            Netscape Comment: 
                Easy-RSA Generated Certificate
            X509v3 Subject Key Identifier: 
                7E:FC:58:0B:E2:05:6E:36:EF:41:34:10:38:87:14:D4:B0:06:40:C7
            X509v3 Authority Key Identifier: 
                keyid:13:33:A4:6E:C5:22:56:36:9C:FA:8D:0C:08:AA:29:32:2A:F8:CB:E6
                DirName:/C=US/ST=OH/L=Cincinnati/O=CDX Project/OU=Dept. Elec. Eng. & Comp. Sys./CN=CDX Project CA/name=EasyRSA/emailAddress=franco@gauss.ececs.uc.edu
                serial:BA:A7:AB:B8:0A:47:F3:70

            X509v3 Extended Key Usage: 
                TLS Web Client Authentication
            X509v3 Key Usage: 
                Digital Signature
            X509v3 Subject Alternative Name: 
                DNS:red-04
    Signature Algorithm: sha256WithRSAEncryption
         7a:6e:c2:2f:7e:ac:21:88:67:d2:f3:26:e3:ca:99:58:bd:d2:
         9d:03:16:12:5d:63:04:55:df:c2:c2:f4:26:0e:cf:00:f3:b0:
         93:af:3b:8d:36:40:86:2e:b6:28:7b:bf:b1:cb:9b:1c:03:2e:
         d3:1d:58:64:e6:c0:81:fe:d2:c7:6b:3d:2d:c3:46:39:d8:7c:
         76:ee:ff:58:dc:63:f8:ec:eb:5b:5f:ea:2b:46:ec:3c:b3:cc:
         e0:5b:fc:92:f5:5c:16:c1:7b:71:df:90:c3:d7:87:24:d6:62:
         9d:1f:c0:c9:92:3e:ea:80:34:cf:81:91:a5:69:7c:6d:8f:a5:
         89:9c:05:2f:44:f6:ac:42:d3:ca:ea:14:33:5e:de:80:a8:a1:
         58:f7:aa:ff:da:fe:af:27:7c:a2:bc:7c:46:5d:c5:6a:0b:c7:
         8b:c4:52:7e:97:04:00:ff:d9:3f:1c:2c:1f:37:59:80:b4:bb:
         47:c4:f6:8a:21:71:ec:a1:07:70:3a:bb:9f:bf:80:9b:bd:8d:
         94:fe:0d:9f:ca:47:f8:22:a0:b8:50:e6:fc:50:15:a8:9c:71:
         00:5e:ee:b5:d2:51:bd:7e:10:c1:ee:66:7e:58:c7:40:ba:f2:
         a3:83:08:c1:5f:6c:af:4d:27:a3:1e:45:4a:f4:1f:27:8a:c2:
         76:43:72:6e
-----BEGIN CERTIFICATE-----
MIIFhzCCBG+gAwIBAgIBMDANBgkqhkiG9w0BAQsFADCBwjELMAkGA1UEBhMCVVMx
CzAJBgNVBAgTAk9IMRMwEQYDVQQHEwpDaW5jaW5uYXRpMRQwEgYDVQQKEwtDRFgg
UHJvamVjdDEmMCQGA1UECxQdRGVwdC4gRWxlYy4gRW5nLiAmIENvbXAuIFN5cy4x
FzAVBgNVBAMTDkNEWCBQcm9qZWN0IENBMRAwDgYDVQQpEwdFYXN5UlNBMSgwJgYJ
KoZIhvcNAQkBFhlmcmFuY29AZ2F1c3MuZWNlY3MudWMuZWR1MB4XDTE3MTExOTIw
NTkwMloXDTI3MTExNzIwNTkwMlowgboxCzAJBgNVBAYTAlVTMQswCQYDVQQIEwJP
SDETMBEGA1UEBxMKQ2luY2lubmF0aTEUMBIGA1UEChMLQ0RYIFByb2plY3QxJjAk
BgNVBAsUHURlcHQuIEVsZWMuIEVuZy4gJiBDb21wLiBTeXMuMQ8wDQYDVQQDEwZy
ZWQtMDQxEDAOBgNVBCkTB0Vhc3lSU0ExKDAmBgkqhkiG9w0BCQEWGWZyYW5jb0Bn
YXVzcy5lY2Vjcy51Yy5lZHUwggEiMA0GCSqGSIb3DQEBAQUAA4IBDwAwggEKAoIB
AQCpli+l80JI9K0NSsBtr2lj03cNpntOzbx960OGmWKKFiJvZFpwWNZ6mk3PZSRt
mxafz3lCc2yKUkIkhnpWed3sy3O/O2bgHx8dm6l6auULvDfgDRF7PyvDXcEaPPlQ
0guQr5MnAGy680wlw0i4pEmExUWcv0ipzgej0H5rPQOlGW3XOtTao6XaFT7qHlaO
MZA9RIvUn8q3N7f65kdnFsFeFmZk+6zXo9idmq8YY/D5Ln2eOw0Jiby4XeyvHQry
pGa1dhPW9vyI8/8oa6z7C5GaPrcNElBFpDAbzKdBQhXTxSX1YD3VW9J9Bfyubcgh
eOjZrGNj4dvB2TOSFr69b0g5AgMBAAGjggGMMIIBiDAJBgNVHRMEAjAAMC0GCWCG
SAGG+EIBDQQgFh5FYXN5LVJTQSBHZW5lcmF0ZWQgQ2VydGlmaWNhdGUwHQYDVR0O
BBYEFH78WAviBW4270E0EDiHFNSwBkDHMIH3BgNVHSMEge8wgeyAFBMzpG7FIlY2
nPqNDAiqKTIq+MvmoYHIpIHFMIHCMQswCQYDVQQGEwJVUzELMAkGA1UECBMCT0gx
EzARBgNVBAcTCkNpbmNpbm5hdGkxFDASBgNVBAoTC0NEWCBQcm9qZWN0MSYwJAYD
VQQLFB1EZXB0LiBFbGVjLiBFbmcuICYgQ29tcC4gU3lzLjEXMBUGA1UEAxMOQ0RY
IFByb2plY3QgQ0ExEDAOBgNVBCkTB0Vhc3lSU0ExKDAmBgkqhkiG9w0BCQEWGWZy
YW5jb0BnYXVzcy5lY2Vjcy51Yy5lZHWCCQC6p6u4CkfzcDATBgNVHSUEDDAKBggr
BgEFBQcDAjALBgNVHQ8EBAMCB4AwEQYDVR0RBAowCIIGcmVkLTA0MA0GCSqGSIb3
DQEBCwUAA4IBAQB6bsIvfqwhiGfS8ybjyplYvdKdAxYSXWMEVd/CwvQmDs8A87CT
rzuNNkCGLrYoe7+xy5scAy7THVhk5sCB/tLHaz0tw0Y52Hx27v9Y3GP47OtbX+or
Ruw8s8zgW/yS9VwWwXtx35DD14ck1mKdH8DJkj7qgDTPgZGlaXxtj6WJnAUvRPas
QtPK6hQzXt6AqKFY96r/2v6vJ3yivHxGXcVqC8eLxFJ+lwQA/9k/HCwfN1mAtLtH
xPaKIXHsoQdwOrufv4CbvY2U/g2fykf4IqC4UOb8UBWonHEAXu610lG9fhDB7mZ+
WMdAuvKjgwjBX2yvTSejHkVK9B8nisJ2Q3Ju
-----END CERTIFICATE-----
