Certificate:
    Data:
        Version: 3 (0x2)
        Serial Number: 50 (0x32)
    Signature Algorithm: sha256WithRSAEncryption
        Issuer: C=US, ST=OH, L=Cincinnati, O=CDX Project, OU=Dept. Elec. Eng. & Comp. Sys., CN=CDX Project CA/name=EasyRSA/emailAddress=franco@gauss.ececs.uc.edu
        Validity
            Not Before: Nov 19 20:59:22 2017 GMT
            Not After : Nov 17 20:59:22 2027 GMT
        Subject: C=US, ST=OH, L=Cincinnati, O=CDX Project, OU=Dept. Elec. Eng. & Comp. Sys., CN=red-06/name=EasyRSA/emailAddress=franco@gauss.ececs.uc.edu
        Subject Public Key Info:
            Public Key Algorithm: rsaEncryption
                Public-Key: (2048 bit)
                Modulus:
                    00:dd:5d:41:0e:82:dd:17:df:04:8a:78:4b:af:72:
                    e6:31:49:df:e6:ea:7d:19:6a:c2:51:b7:e9:e4:9a:
                    a5:7e:d0:fe:fc:9a:c2:b9:a9:79:9c:51:68:8d:20:
                    f9:6c:ca:2f:89:41:35:54:5b:81:9b:ce:24:ab:78:
                    0b:6f:25:1b:f1:c4:11:79:51:d7:c6:e6:42:ff:4a:
                    1a:ff:0f:b6:65:ef:c7:f1:3e:a6:00:3e:d0:56:df:
                    f2:43:dd:1a:e0:f1:ac:92:b6:8f:dd:a8:14:0d:b4:
                    07:08:42:e3:58:dc:26:a0:76:88:7e:d3:d4:9f:79:
                    0c:63:97:c4:db:0d:05:2a:3c:58:05:db:63:36:98:
                    7e:5d:9e:78:65:51:18:cf:af:d5:62:7e:13:53:91:
                    72:72:5a:aa:3c:a9:52:38:c9:ff:a1:3e:d4:d6:df:
                    55:1f:c4:15:1c:13:d4:3b:43:cb:70:e3:2b:39:e5:
                    ba:79:1f:3e:30:e2:a0:8c:39:57:41:44:84:df:d3:
                    c2:bc:e1:f4:aa:e1:1a:d4:82:f9:41:2d:6a:e3:8e:
                    cd:1f:8f:e8:c1:0c:1f:47:3c:7b:cf:1d:29:1a:09:
                    93:52:18:10:35:03:20:b1:04:0b:ae:3c:66:07:e9:
                    66:af:2e:ba:2c:a5:05:d6:25:51:04:dd:4f:68:f2:
                    33:1b
                Exponent: 65537 (0x10001)
        X509v3 extensions:
            X509v3 Basic Constraints: 
                CA:FALSE
            Netscape Comment: 
                Easy-RSA Generated Certificate
            X509v3 Subject Key Identifier: 
                0A:70:E2:12:8F:5E:F1:82:27:59:FE:B1:4C:A6:4F:77:C0:59:14:DE
            X509v3 Authority Key Identifier: 
                keyid:13:33:A4:6E:C5:22:56:36:9C:FA:8D:0C:08:AA:29:32:2A:F8:CB:E6
                DirName:/C=US/ST=OH/L=Cincinnati/O=CDX Project/OU=Dept. Elec. Eng. & Comp. Sys./CN=CDX Project CA/name=EasyRSA/emailAddress=franco@gauss.ececs.uc.edu
                serial:BA:A7:AB:B8:0A:47:F3:70

            X509v3 Extended Key Usage: 
                TLS Web Client Authentication
            X509v3 Key Usage: 
                Digital Signature
            X509v3 Subject Alternative Name: 
                DNS:red-06
    Signature Algorithm: sha256WithRSAEncryption
         3d:62:d8:a7:41:04:1a:3f:74:76:8b:35:aa:42:68:b6:66:8f:
         84:8a:05:e9:39:c5:81:df:bd:bc:41:f5:df:fa:a6:1f:bd:38:
         85:9d:3a:38:c2:9c:f7:90:d2:f7:25:a5:36:f6:9f:44:e9:6e:
         a4:81:07:74:c1:34:aa:48:88:43:d5:96:da:32:6f:57:3f:0a:
         9e:95:22:16:e8:d8:c1:04:51:21:4b:02:2f:11:62:61:77:7d:
         90:c5:60:7d:86:ee:4b:26:06:4e:bc:18:b6:ca:77:50:15:ad:
         55:e5:ac:60:84:07:94:d2:9b:22:2f:cc:40:ec:83:5a:71:3c:
         20:a0:91:14:38:f5:2e:1b:5c:31:31:10:1a:f8:dc:7c:02:95:
         52:51:f7:c2:36:b9:d9:91:e9:6b:1d:c9:59:8f:15:c1:b9:28:
         0a:92:c8:dd:c5:4e:5c:d9:e2:28:64:3b:c6:67:56:06:93:48:
         85:f5:49:77:a8:7d:0b:da:03:e7:fe:8a:5f:70:b5:2c:1e:7c:
         8b:77:5f:83:38:e3:7b:ef:3a:eb:c4:19:c3:60:78:67:48:25:
         e5:7c:a9:9d:0e:6a:30:49:77:5b:4c:50:89:27:30:f4:66:25:
         60:23:92:3d:6f:43:b9:ea:cc:85:69:99:ff:01:56:ee:41:63:
         b4:bb:1d:3d
-----BEGIN CERTIFICATE-----
MIIFhzCCBG+gAwIBAgIBMjANBgkqhkiG9w0BAQsFADCBwjELMAkGA1UEBhMCVVMx
CzAJBgNVBAgTAk9IMRMwEQYDVQQHEwpDaW5jaW5uYXRpMRQwEgYDVQQKEwtDRFgg
UHJvamVjdDEmMCQGA1UECxQdRGVwdC4gRWxlYy4gRW5nLiAmIENvbXAuIFN5cy4x
FzAVBgNVBAMTDkNEWCBQcm9qZWN0IENBMRAwDgYDVQQpEwdFYXN5UlNBMSgwJgYJ
KoZIhvcNAQkBFhlmcmFuY29AZ2F1c3MuZWNlY3MudWMuZWR1MB4XDTE3MTExOTIw
NTkyMloXDTI3MTExNzIwNTkyMlowgboxCzAJBgNVBAYTAlVTMQswCQYDVQQIEwJP
SDETMBEGA1UEBxMKQ2luY2lubmF0aTEUMBIGA1UEChMLQ0RYIFByb2plY3QxJjAk
BgNVBAsUHURlcHQuIEVsZWMuIEVuZy4gJiBDb21wLiBTeXMuMQ8wDQYDVQQDEwZy
ZWQtMDYxEDAOBgNVBCkTB0Vhc3lSU0ExKDAmBgkqhkiG9w0BCQEWGWZyYW5jb0Bn
YXVzcy5lY2Vjcy51Yy5lZHUwggEiMA0GCSqGSIb3DQEBAQUAA4IBDwAwggEKAoIB
AQDdXUEOgt0X3wSKeEuvcuYxSd/m6n0ZasJRt+nkmqV+0P78msK5qXmcUWiNIPls
yi+JQTVUW4GbziSreAtvJRvxxBF5UdfG5kL/Shr/D7Zl78fxPqYAPtBW3/JD3Rrg
8aySto/dqBQNtAcIQuNY3Cagdoh+09SfeQxjl8TbDQUqPFgF22M2mH5dnnhlURjP
r9VifhNTkXJyWqo8qVI4yf+hPtTW31UfxBUcE9Q7Q8tw4ys55bp5Hz4w4qCMOVdB
RITf08K84fSq4RrUgvlBLWrjjs0fj+jBDB9HPHvPHSkaCZNSGBA1AyCxBAuuPGYH
6WavLrospQXWJVEE3U9o8jMbAgMBAAGjggGMMIIBiDAJBgNVHRMEAjAAMC0GCWCG
SAGG+EIBDQQgFh5FYXN5LVJTQSBHZW5lcmF0ZWQgQ2VydGlmaWNhdGUwHQYDVR0O
BBYEFApw4hKPXvGCJ1n+sUymT3fAWRTeMIH3BgNVHSMEge8wgeyAFBMzpG7FIlY2
nPqNDAiqKTIq+MvmoYHIpIHFMIHCMQswCQYDVQQGEwJVUzELMAkGA1UECBMCT0gx
EzARBgNVBAcTCkNpbmNpbm5hdGkxFDASBgNVBAoTC0NEWCBQcm9qZWN0MSYwJAYD
VQQLFB1EZXB0LiBFbGVjLiBFbmcuICYgQ29tcC4gU3lzLjEXMBUGA1UEAxMOQ0RY
IFByb2plY3QgQ0ExEDAOBgNVBCkTB0Vhc3lSU0ExKDAmBgkqhkiG9w0BCQEWGWZy
YW5jb0BnYXVzcy5lY2Vjcy51Yy5lZHWCCQC6p6u4CkfzcDATBgNVHSUEDDAKBggr
BgEFBQcDAjALBgNVHQ8EBAMCB4AwEQYDVR0RBAowCIIGcmVkLTA2MA0GCSqGSIb3
DQEBCwUAA4IBAQA9YtinQQQaP3R2izWqQmi2Zo+EigXpOcWB3728QfXf+qYfvTiF
nTo4wpz3kNL3JaU29p9E6W6kgQd0wTSqSIhD1ZbaMm9XPwqelSIW6NjBBFEhSwIv
EWJhd32QxWB9hu5LJgZOvBi2yndQFa1V5axghAeU0psiL8xA7INacTwgoJEUOPUu
G1wxMRAa+Nx8ApVSUffCNrnZkelrHclZjxXBuSgKksjdxU5c2eIoZDvGZ1YGk0iF
9Ul3qH0L2gPn/opfcLUsHnyLd1+DOON77zrrxBnDYHhnSCXlfKmdDmowSXdbTFCJ
JzD0ZiVgI5I9b0O56syFaZn/AVbuQWO0ux09
-----END CERTIFICATE-----
