Certificate:
    Data:
        Version: 3 (0x2)
        Serial Number: 51 (0x33)
    Signature Algorithm: sha256WithRSAEncryption
        Issuer: C=US, ST=OH, L=Cincinnati, O=CDX Project, OU=Dept. Elec. Eng. & Comp. Sys., CN=CDX Project CA/name=EasyRSA/emailAddress=franco@gauss.ececs.uc.edu
        Validity
            Not Before: Nov 19 20:59:30 2017 GMT
            Not After : Nov 17 20:59:30 2027 GMT
        Subject: C=US, ST=OH, L=Cincinnati, O=CDX Project, OU=Dept. Elec. Eng. & Comp. Sys., CN=red-07/name=EasyRSA/emailAddress=franco@gauss.ececs.uc.edu
        Subject Public Key Info:
            Public Key Algorithm: rsaEncryption
                Public-Key: (2048 bit)
                Modulus:
                    00:c7:cf:58:7e:ab:64:ee:3d:3f:bc:c9:bd:64:a6:
                    ff:6d:e0:50:a2:f1:2b:12:a4:6c:3f:55:28:b9:91:
                    1c:4f:ad:f6:88:a0:35:2b:8a:03:91:b5:54:90:67:
                    9a:8c:17:a1:fb:6b:7f:1b:51:d8:35:26:8a:91:a4:
                    8f:b7:60:05:05:39:62:11:a1:bc:5c:80:fd:2e:13:
                    75:c0:e1:42:23:9e:9c:de:8a:14:bb:87:21:92:7b:
                    48:d6:36:81:aa:21:b4:98:cd:62:26:04:e6:00:46:
                    17:bf:05:99:0b:eb:59:d2:a5:10:75:60:9e:63:cd:
                    42:80:e7:cd:dc:ff:15:54:6c:04:b7:bc:8d:ad:e9:
                    63:cd:6b:72:d0:de:ca:e9:2b:dc:0e:a0:25:b1:2b:
                    6d:41:34:0d:af:09:64:e4:42:6a:1b:0f:5d:6c:de:
                    88:1e:78:26:28:78:f6:73:3f:61:21:86:c5:d3:c9:
                    c6:d0:be:e5:e7:f5:18:8e:1c:70:04:db:4c:d1:0d:
                    06:64:71:b9:1d:e1:ac:e6:a7:f7:9d:3f:64:d1:98:
                    b6:4f:2f:70:de:cc:d5:32:78:af:a8:42:bb:09:5b:
                    de:19:ae:e7:52:71:d4:24:a1:9f:02:4f:7c:8b:32:
                    80:6d:4c:1e:fe:9d:29:fe:88:7c:89:68:28:f9:a1:
                    1c:7d
                Exponent: 65537 (0x10001)
        X509v3 extensions:
            X509v3 Basic Constraints: 
                CA:FALSE
            Netscape Comment: 
                Easy-RSA Generated Certificate
            X509v3 Subject Key Identifier: 
                11:5D:66:04:78:36:F3:44:93:01:2F:0C:BD:64:9E:E7:6E:19:23:F5
            X509v3 Authority Key Identifier: 
                keyid:13:33:A4:6E:C5:22:56:36:9C:FA:8D:0C:08:AA:29:32:2A:F8:CB:E6
                DirName:/C=US/ST=OH/L=Cincinnati/O=CDX Project/OU=Dept. Elec. Eng. & Comp. Sys./CN=CDX Project CA/name=EasyRSA/emailAddress=franco@gauss.ececs.uc.edu
                serial:BA:A7:AB:B8:0A:47:F3:70

            X509v3 Extended Key Usage: 
                TLS Web Client Authentication
            X509v3 Key Usage: 
                Digital Signature
            X509v3 Subject Alternative Name: 
                DNS:red-07
    Signature Algorithm: sha256WithRSAEncryption
         73:b9:ca:99:72:79:55:5b:5d:50:a2:7c:1f:48:f8:5b:5d:35:
         5f:dd:45:20:88:b8:9e:c5:f8:25:34:0a:5e:78:b2:ec:5d:60:
         9a:8d:48:ba:cf:40:33:c1:fb:2c:32:2c:3c:c9:fe:14:0a:f2:
         d2:66:b4:83:ec:d0:d9:59:28:9b:e9:1f:cd:3c:78:56:7f:be:
         7c:bd:ae:ef:20:7c:a9:ea:62:aa:fa:96:aa:0d:72:28:3e:88:
         0c:eb:9a:0c:21:06:f5:05:f7:2d:15:74:a4:b9:f9:b1:51:1e:
         d5:05:6b:f5:f5:53:e0:0a:29:c7:84:a2:fe:3b:17:d2:20:63:
         d3:6d:d3:0e:bd:5a:64:18:57:c9:a7:69:c9:c1:cf:79:e6:2e:
         12:f4:f5:2a:ab:db:7b:ba:d9:4e:1d:af:45:07:2b:55:26:75:
         a9:64:11:0b:7e:76:37:58:1d:d8:26:5b:84:1c:2c:a8:9e:53:
         d0:8a:7d:dc:a5:50:12:9a:54:89:86:01:20:b6:c7:c8:7d:f2:
         9d:1b:b7:14:36:96:6c:36:2c:83:7a:82:42:97:c2:17:27:16:
         d9:6b:ff:77:21:c7:a7:69:59:95:de:21:7a:56:aa:dc:13:3b:
         47:53:da:22:27:fa:43:4c:3a:97:71:ca:67:14:6b:e6:52:e4:
         f3:8e:52:58
-----BEGIN CERTIFICATE-----
MIIFhzCCBG+gAwIBAgIBMzANBgkqhkiG9w0BAQsFADCBwjELMAkGA1UEBhMCVVMx
CzAJBgNVBAgTAk9IMRMwEQYDVQQHEwpDaW5jaW5uYXRpMRQwEgYDVQQKEwtDRFgg
UHJvamVjdDEmMCQGA1UECxQdRGVwdC4gRWxlYy4gRW5nLiAmIENvbXAuIFN5cy4x
FzAVBgNVBAMTDkNEWCBQcm9qZWN0IENBMRAwDgYDVQQpEwdFYXN5UlNBMSgwJgYJ
KoZIhvcNAQkBFhlmcmFuY29AZ2F1c3MuZWNlY3MudWMuZWR1MB4XDTE3MTExOTIw
NTkzMFoXDTI3MTExNzIwNTkzMFowgboxCzAJBgNVBAYTAlVTMQswCQYDVQQIEwJP
SDETMBEGA1UEBxMKQ2luY2lubmF0aTEUMBIGA1UEChMLQ0RYIFByb2plY3QxJjAk
BgNVBAsUHURlcHQuIEVsZWMuIEVuZy4gJiBDb21wLiBTeXMuMQ8wDQYDVQQDEwZy
ZWQtMDcxEDAOBgNVBCkTB0Vhc3lSU0ExKDAmBgkqhkiG9w0BCQEWGWZyYW5jb0Bn
YXVzcy5lY2Vjcy51Yy5lZHUwggEiMA0GCSqGSIb3DQEBAQUAA4IBDwAwggEKAoIB
AQDHz1h+q2TuPT+8yb1kpv9t4FCi8SsSpGw/VSi5kRxPrfaIoDUrigORtVSQZ5qM
F6H7a38bUdg1JoqRpI+3YAUFOWIRobxcgP0uE3XA4UIjnpzeihS7hyGSe0jWNoGq
IbSYzWImBOYARhe/BZkL61nSpRB1YJ5jzUKA583c/xVUbAS3vI2t6WPNa3LQ3srp
K9wOoCWxK21BNA2vCWTkQmobD11s3ogeeCYoePZzP2EhhsXTycbQvuXn9RiOHHAE
20zRDQZkcbkd4azmp/edP2TRmLZPL3DezNUyeK+oQrsJW94ZrudScdQkoZ8CT3yL
MoBtTB7+nSn+iHyJaCj5oRx9AgMBAAGjggGMMIIBiDAJBgNVHRMEAjAAMC0GCWCG
SAGG+EIBDQQgFh5FYXN5LVJTQSBHZW5lcmF0ZWQgQ2VydGlmaWNhdGUwHQYDVR0O
BBYEFBFdZgR4NvNEkwEvDL1knuduGSP1MIH3BgNVHSMEge8wgeyAFBMzpG7FIlY2
nPqNDAiqKTIq+MvmoYHIpIHFMIHCMQswCQYDVQQGEwJVUzELMAkGA1UECBMCT0gx
EzARBgNVBAcTCkNpbmNpbm5hdGkxFDASBgNVBAoTC0NEWCBQcm9qZWN0MSYwJAYD
VQQLFB1EZXB0LiBFbGVjLiBFbmcuICYgQ29tcC4gU3lzLjEXMBUGA1UEAxMOQ0RY
IFByb2plY3QgQ0ExEDAOBgNVBCkTB0Vhc3lSU0ExKDAmBgkqhkiG9w0BCQEWGWZy
YW5jb0BnYXVzcy5lY2Vjcy51Yy5lZHWCCQC6p6u4CkfzcDATBgNVHSUEDDAKBggr
BgEFBQcDAjALBgNVHQ8EBAMCB4AwEQYDVR0RBAowCIIGcmVkLTA3MA0GCSqGSIb3
DQEBCwUAA4IBAQBzucqZcnlVW11QonwfSPhbXTVf3UUgiLiexfglNApeeLLsXWCa
jUi6z0AzwfssMiw8yf4UCvLSZrSD7NDZWSib6R/NPHhWf758va7vIHyp6mKq+paq
DXIoPogM65oMIQb1BfctFXSkufmxUR7VBWv19VPgCinHhKL+OxfSIGPTbdMOvVpk
GFfJp2nJwc955i4S9PUqq9t7utlOHa9FBytVJnWpZBELfnY3WB3YJluEHCyonlPQ
in3cpVASmlSJhgEgtsfIffKdG7cUNpZsNiyDeoJCl8IXJxbZa/93IcenaVmV3iF6
VqrcEztHU9oiJ/pDTDqXccpnFGvmUuTzjlJY
-----END CERTIFICATE-----
