Certificate:
    Data:
        Version: 3 (0x2)
        Serial Number: 52 (0x34)
    Signature Algorithm: sha256WithRSAEncryption
        Issuer: C=US, ST=OH, L=Cincinnati, O=CDX Project, OU=Dept. Elec. Eng. & Comp. Sys., CN=CDX Project CA/name=EasyRSA/emailAddress=franco@gauss.ececs.uc.edu
        Validity
            Not Before: Nov 19 20:59:57 2017 GMT
            Not After : Nov 17 20:59:57 2027 GMT
        Subject: C=US, ST=OH, L=Cincinnati, O=CDX Project, OU=Dept. Elec. Eng. & Comp. Sys., CN=red-09/name=EasyRSA/emailAddress=franco@gauss.ececs.uc.edu
        Subject Public Key Info:
            Public Key Algorithm: rsaEncryption
                Public-Key: (2048 bit)
                Modulus:
                    00:d3:86:3c:69:1f:c3:9e:ef:03:c6:7a:c0:a7:3e:
                    f2:c3:b6:5f:e3:c9:15:94:7a:c4:27:5d:e9:48:e9:
                    52:55:31:ee:2a:1e:55:90:07:84:5c:13:a5:34:e6:
                    26:d6:1d:bd:57:b2:b2:1a:c3:a2:14:cb:a2:67:3a:
                    d3:1e:25:7e:9b:3f:db:05:65:19:66:8b:65:79:ec:
                    31:10:1d:39:f5:a6:90:f6:32:ff:f7:97:5b:4f:0b:
                    06:11:5d:8b:77:74:c5:66:91:32:2a:27:17:57:73:
                    b0:a1:c5:da:95:56:af:f9:58:56:1d:11:00:d5:6c:
                    2d:1c:b9:32:9d:3f:e5:61:0c:fa:4e:41:4c:16:25:
                    9e:94:c6:de:b6:b3:f5:00:9f:b7:52:f2:9d:08:dd:
                    45:d4:b2:42:55:28:cf:5c:d8:84:34:f5:50:c6:ac:
                    d4:87:24:d4:10:a2:ef:38:81:f6:9e:e2:80:bd:5e:
                    3d:73:d0:3b:f8:40:db:1b:31:18:88:87:fe:d3:d5:
                    96:1b:81:55:92:88:78:f2:3b:53:af:ae:0a:0e:ca:
                    54:4a:89:a1:7c:31:12:85:5b:5d:2b:75:4f:6f:d8:
                    f9:59:9e:67:13:1b:92:93:d6:5a:ab:31:18:39:9b:
                    1f:32:5d:89:c5:6b:55:12:78:df:ba:b2:0b:02:57:
                    e0:9b
                Exponent: 65537 (0x10001)
        X509v3 extensions:
            X509v3 Basic Constraints: 
                CA:FALSE
            Netscape Comment: 
                Easy-RSA Generated Certificate
            X509v3 Subject Key Identifier: 
                69:05:86:76:2D:AB:D9:30:11:3A:76:10:E0:8B:20:C7:12:25:4E:0B
            X509v3 Authority Key Identifier: 
                keyid:13:33:A4:6E:C5:22:56:36:9C:FA:8D:0C:08:AA:29:32:2A:F8:CB:E6
                DirName:/C=US/ST=OH/L=Cincinnati/O=CDX Project/OU=Dept. Elec. Eng. & Comp. Sys./CN=CDX Project CA/name=EasyRSA/emailAddress=franco@gauss.ececs.uc.edu
                serial:BA:A7:AB:B8:0A:47:F3:70

            X509v3 Extended Key Usage: 
                TLS Web Client Authentication
            X509v3 Key Usage: 
                Digital Signature
            X509v3 Subject Alternative Name: 
                DNS:red-09
    Signature Algorithm: sha256WithRSAEncryption
         64:a3:ab:64:5b:b2:06:ee:d7:3e:64:87:95:71:0e:a4:62:fe:
         e7:ca:b8:6f:db:69:c2:4b:43:e3:17:54:67:a1:56:bb:b1:ca:
         38:56:ed:63:1c:b0:61:30:13:7f:11:45:45:33:65:86:52:8c:
         36:bc:98:df:0b:fb:17:06:ca:fb:e2:e4:dc:68:af:58:28:91:
         ed:13:1a:d7:4b:f9:da:98:b0:f1:fb:05:ae:4d:2e:49:6f:bb:
         08:9a:3a:92:f8:e3:fb:a1:5b:a7:b4:38:71:e7:ef:48:a2:40:
         ed:c5:60:23:7f:5b:72:88:6c:68:ed:b2:2f:1f:d9:fe:7a:e7:
         34:fe:31:5f:c1:ca:6e:fa:5b:3b:fb:27:5b:c2:f5:16:d7:ba:
         97:0f:09:39:76:8f:63:d8:13:f8:ac:40:06:0c:45:c7:a2:84:
         aa:33:fc:a7:4b:1d:7d:b5:cc:3a:0d:44:03:25:a0:a1:8b:d6:
         fc:b2:22:70:7a:0b:bf:8e:57:6b:67:de:12:53:a4:07:d9:2a:
         df:0f:6c:aa:3b:ca:07:c6:76:9e:11:44:74:e7:1b:53:ce:e3:
         be:c8:91:6d:f3:38:a4:bb:c6:35:03:a1:02:81:0f:ee:95:1a:
         23:07:df:78:73:17:71:e5:3e:b4:fa:87:fa:e4:af:cf:35:ad:
         4b:d2:f8:82
-----BEGIN CERTIFICATE-----
MIIFhzCCBG+gAwIBAgIBNDANBgkqhkiG9w0BAQsFADCBwjELMAkGA1UEBhMCVVMx
CzAJBgNVBAgTAk9IMRMwEQYDVQQHEwpDaW5jaW5uYXRpMRQwEgYDVQQKEwtDRFgg
UHJvamVjdDEmMCQGA1UECxQdRGVwdC4gRWxlYy4gRW5nLiAmIENvbXAuIFN5cy4x
FzAVBgNVBAMTDkNEWCBQcm9qZWN0IENBMRAwDgYDVQQpEwdFYXN5UlNBMSgwJgYJ
KoZIhvcNAQkBFhlmcmFuY29AZ2F1c3MuZWNlY3MudWMuZWR1MB4XDTE3MTExOTIw
NTk1N1oXDTI3MTExNzIwNTk1N1owgboxCzAJBgNVBAYTAlVTMQswCQYDVQQIEwJP
SDETMBEGA1UEBxMKQ2luY2lubmF0aTEUMBIGA1UEChMLQ0RYIFByb2plY3QxJjAk
BgNVBAsUHURlcHQuIEVsZWMuIEVuZy4gJiBDb21wLiBTeXMuMQ8wDQYDVQQDEwZy
ZWQtMDkxEDAOBgNVBCkTB0Vhc3lSU0ExKDAmBgkqhkiG9w0BCQEWGWZyYW5jb0Bn
YXVzcy5lY2Vjcy51Yy5lZHUwggEiMA0GCSqGSIb3DQEBAQUAA4IBDwAwggEKAoIB
AQDThjxpH8Oe7wPGesCnPvLDtl/jyRWUesQnXelI6VJVMe4qHlWQB4RcE6U05ibW
Hb1XsrIaw6IUy6JnOtMeJX6bP9sFZRlmi2V57DEQHTn1ppD2Mv/3l1tPCwYRXYt3
dMVmkTIqJxdXc7ChxdqVVq/5WFYdEQDVbC0cuTKdP+VhDPpOQUwWJZ6Uxt62s/UA
n7dS8p0I3UXUskJVKM9c2IQ09VDGrNSHJNQQou84gfae4oC9Xj1z0Dv4QNsbMRiI
h/7T1ZYbgVWSiHjyO1OvrgoOylRKiaF8MRKFW10rdU9v2PlZnmcTG5KT1lqrMRg5
mx8yXYnFa1USeN+6sgsCV+CbAgMBAAGjggGMMIIBiDAJBgNVHRMEAjAAMC0GCWCG
SAGG+EIBDQQgFh5FYXN5LVJTQSBHZW5lcmF0ZWQgQ2VydGlmaWNhdGUwHQYDVR0O
BBYEFGkFhnYtq9kwETp2EOCLIMcSJU4LMIH3BgNVHSMEge8wgeyAFBMzpG7FIlY2
nPqNDAiqKTIq+MvmoYHIpIHFMIHCMQswCQYDVQQGEwJVUzELMAkGA1UECBMCT0gx
EzARBgNVBAcTCkNpbmNpbm5hdGkxFDASBgNVBAoTC0NEWCBQcm9qZWN0MSYwJAYD
VQQLFB1EZXB0LiBFbGVjLiBFbmcuICYgQ29tcC4gU3lzLjEXMBUGA1UEAxMOQ0RY
IFByb2plY3QgQ0ExEDAOBgNVBCkTB0Vhc3lSU0ExKDAmBgkqhkiG9w0BCQEWGWZy
YW5jb0BnYXVzcy5lY2Vjcy51Yy5lZHWCCQC6p6u4CkfzcDATBgNVHSUEDDAKBggr
BgEFBQcDAjALBgNVHQ8EBAMCB4AwEQYDVR0RBAowCIIGcmVkLTA5MA0GCSqGSIb3
DQEBCwUAA4IBAQBko6tkW7IG7tc+ZIeVcQ6kYv7nyrhv22nCS0PjF1RnoVa7sco4
Vu1jHLBhMBN/EUVFM2WGUow2vJjfC/sXBsr74uTcaK9YKJHtExrXS/namLDx+wWu
TS5Jb7sImjqS+OP7oVuntDhx5+9IokDtxWAjf1tyiGxo7bIvH9n+euc0/jFfwcpu
+ls7+ydbwvUW17qXDwk5do9j2BP4rEAGDEXHooSqM/ynSx19tcw6DUQDJaChi9b8
siJwegu/jldrZ94SU6QH2SrfD2yqO8oHxnaeEUR05xtTzuO+yJFt8ziku8Y1A6EC
gQ/ulRojB994cxdx5T60+of65K/PNa1L0viC
-----END CERTIFICATE-----
