Certificate:
    Data:
        Version: 3 (0x2)
        Serial Number: 45 (0x2d)
    Signature Algorithm: sha256WithRSAEncryption
        Issuer: C=US, ST=OH, L=Cincinnati, O=CDX Project, OU=Dept. Elec. Eng. & Comp. Sys., CN=CDX Project CA/name=EasyRSA/emailAddress=franco@gauss.ececs.uc.edu
        Validity
            Not Before: Nov 19 20:58:33 2017 GMT
            Not After : Nov 17 20:58:33 2027 GMT
        Subject: C=US, ST=OH, L=Cincinnati, O=CDX Project, OU=Dept. Elec. Eng. & Comp. Sys., CN=red-01/name=EasyRSA/emailAddress=franco@gauss.ececs.uc.edu
        Subject Public Key Info:
            Public Key Algorithm: rsaEncryption
                Public-Key: (2048 bit)
                Modulus:
                    00:d9:c4:e1:1b:8a:54:4a:63:2f:5f:d2:1f:65:20:
                    7c:81:4e:db:bc:84:6d:aa:30:64:a5:dd:b7:28:da:
                    da:17:87:28:c4:32:33:da:8a:da:bc:de:de:8a:d9:
                    1b:fc:39:1a:d7:88:24:5f:83:31:33:b2:d2:ae:10:
                    ca:ed:52:66:a4:ea:78:bd:16:56:8c:a9:f5:2e:e9:
                    46:50:16:84:7e:b7:06:d0:84:cb:23:b1:a3:61:4a:
                    4a:aa:65:82:8a:bc:31:e6:a4:df:e5:05:4c:f3:19:
                    cc:e1:4d:38:d4:f5:4c:47:60:6d:4c:a8:8a:e7:03:
                    28:6b:86:20:b6:51:91:94:dc:be:41:a2:3b:14:26:
                    60:70:87:1a:8b:73:5e:da:78:45:97:e3:07:6a:fe:
                    50:a6:c7:ce:a4:d7:e1:13:18:e2:d2:54:d8:31:4f:
                    9f:be:ff:9e:dc:6d:7f:84:2a:18:ce:51:76:56:09:
                    d5:22:2b:a4:48:ac:34:18:ec:71:cb:a3:b2:66:74:
                    38:ff:af:73:8b:9a:f0:f2:1c:6f:95:f5:30:62:29:
                    cf:d5:58:3b:c8:12:86:90:1c:58:b9:48:bf:18:72:
                    cb:b4:6d:22:d9:51:b6:14:16:15:bf:ac:0d:e2:d0:
                    a2:05:30:a9:dc:39:5a:e4:00:fa:b8:a8:a8:82:39:
                    37:45
                Exponent: 65537 (0x10001)
        X509v3 extensions:
            X509v3 Basic Constraints: 
                CA:FALSE
            Netscape Comment: 
                Easy-RSA Generated Certificate
            X509v3 Subject Key Identifier: 
                9E:B2:B6:6D:14:93:D3:0F:34:C9:A5:98:23:75:1F:8E:73:AC:AC:17
            X509v3 Authority Key Identifier: 
                keyid:13:33:A4:6E:C5:22:56:36:9C:FA:8D:0C:08:AA:29:32:2A:F8:CB:E6
                DirName:/C=US/ST=OH/L=Cincinnati/O=CDX Project/OU=Dept. Elec. Eng. & Comp. Sys./CN=CDX Project CA/name=EasyRSA/emailAddress=franco@gauss.ececs.uc.edu
                serial:BA:A7:AB:B8:0A:47:F3:70

            X509v3 Extended Key Usage: 
                TLS Web Client Authentication
            X509v3 Key Usage: 
                Digital Signature
            X509v3 Subject Alternative Name: 
                DNS:red-01
    Signature Algorithm: sha256WithRSAEncryption
         50:15:84:aa:a7:f6:da:e6:ba:f3:35:33:2c:3c:ea:cb:62:07:
         26:90:3c:ac:8c:cc:82:a2:c3:6a:48:22:76:98:fb:4b:88:61:
         05:6a:25:cc:f0:21:b9:1b:05:a4:09:fc:b4:6c:c5:6b:8a:7d:
         b8:7f:f8:60:2a:02:7e:12:16:26:b7:08:a2:1f:d8:60:16:5b:
         83:5c:6a:1d:bb:49:48:cd:3b:9b:d9:24:8a:6c:6d:87:34:1e:
         99:da:96:0d:b3:20:f3:41:99:23:e9:9b:95:76:c2:48:ff:c5:
         9e:59:cb:21:a2:03:a5:2f:21:1a:73:cf:b6:5e:40:d5:aa:75:
         95:19:a7:b2:b5:79:1b:b4:42:64:5f:a1:f4:3f:8b:6e:e3:0f:
         99:23:95:c3:77:dd:52:58:94:1b:32:07:03:f9:02:e2:ba:91:
         6d:78:56:81:79:a0:b5:21:86:59:c9:da:da:e4:ff:b7:ae:10:
         e1:9d:d8:cc:1e:9a:d2:50:71:ff:2b:39:8a:05:d3:32:50:4f:
         0f:dc:0d:97:1a:b2:cc:01:78:9f:1c:a9:ca:17:96:62:1b:05:
         7d:f0:0d:9d:7a:57:26:12:58:c5:b2:f5:f8:8f:46:4a:d5:e0:
         6d:a1:cb:1c:55:2c:ce:2b:b9:2d:54:67:6e:3d:73:33:14:24:
         a6:4a:03:af
-----BEGIN CERTIFICATE-----
MIIFhzCCBG+gAwIBAgIBLTANBgkqhkiG9w0BAQsFADCBwjELMAkGA1UEBhMCVVMx
CzAJBgNVBAgTAk9IMRMwEQYDVQQHEwpDaW5jaW5uYXRpMRQwEgYDVQQKEwtDRFgg
UHJvamVjdDEmMCQGA1UECxQdRGVwdC4gRWxlYy4gRW5nLiAmIENvbXAuIFN5cy4x
FzAVBgNVBAMTDkNEWCBQcm9qZWN0IENBMRAwDgYDVQQpEwdFYXN5UlNBMSgwJgYJ
KoZIhvcNAQkBFhlmcmFuY29AZ2F1c3MuZWNlY3MudWMuZWR1MB4XDTE3MTExOTIw
NTgzM1oXDTI3MTExNzIwNTgzM1owgboxCzAJBgNVBAYTAlVTMQswCQYDVQQIEwJP
SDETMBEGA1UEBxMKQ2luY2lubmF0aTEUMBIGA1UEChMLQ0RYIFByb2plY3QxJjAk
BgNVBAsUHURlcHQuIEVsZWMuIEVuZy4gJiBDb21wLiBTeXMuMQ8wDQYDVQQDEwZy
ZWQtMDExEDAOBgNVBCkTB0Vhc3lSU0ExKDAmBgkqhkiG9w0BCQEWGWZyYW5jb0Bn
YXVzcy5lY2Vjcy51Yy5lZHUwggEiMA0GCSqGSIb3DQEBAQUAA4IBDwAwggEKAoIB
AQDZxOEbilRKYy9f0h9lIHyBTtu8hG2qMGSl3bco2toXhyjEMjPaitq83t6K2Rv8
ORrXiCRfgzEzstKuEMrtUmak6ni9FlaMqfUu6UZQFoR+twbQhMsjsaNhSkqqZYKK
vDHmpN/lBUzzGczhTTjU9UxHYG1MqIrnAyhrhiC2UZGU3L5BojsUJmBwhxqLc17a
eEWX4wdq/lCmx86k1+ETGOLSVNgxT5++/57cbX+EKhjOUXZWCdUiK6RIrDQY7HHL
o7JmdDj/r3OLmvDyHG+V9TBiKc/VWDvIEoaQHFi5SL8Ycsu0bSLZUbYUFhW/rA3i
0KIFMKncOVrkAPq4qKiCOTdFAgMBAAGjggGMMIIBiDAJBgNVHRMEAjAAMC0GCWCG
SAGG+EIBDQQgFh5FYXN5LVJTQSBHZW5lcmF0ZWQgQ2VydGlmaWNhdGUwHQYDVR0O
BBYEFJ6ytm0Uk9MPNMmlmCN1H45zrKwXMIH3BgNVHSMEge8wgeyAFBMzpG7FIlY2
nPqNDAiqKTIq+MvmoYHIpIHFMIHCMQswCQYDVQQGEwJVUzELMAkGA1UECBMCT0gx
EzARBgNVBAcTCkNpbmNpbm5hdGkxFDASBgNVBAoTC0NEWCBQcm9qZWN0MSYwJAYD
VQQLFB1EZXB0LiBFbGVjLiBFbmcuICYgQ29tcC4gU3lzLjEXMBUGA1UEAxMOQ0RY
IFByb2plY3QgQ0ExEDAOBgNVBCkTB0Vhc3lSU0ExKDAmBgkqhkiG9w0BCQEWGWZy
YW5jb0BnYXVzcy5lY2Vjcy51Yy5lZHWCCQC6p6u4CkfzcDATBgNVHSUEDDAKBggr
BgEFBQcDAjALBgNVHQ8EBAMCB4AwEQYDVR0RBAowCIIGcmVkLTAxMA0GCSqGSIb3
DQEBCwUAA4IBAQBQFYSqp/ba5rrzNTMsPOrLYgcmkDysjMyCosNqSCJ2mPtLiGEF
aiXM8CG5GwWkCfy0bMVrin24f/hgKgJ+EhYmtwiiH9hgFluDXGodu0lIzTub2SSK
bG2HNB6Z2pYNsyDzQZkj6ZuVdsJI/8WeWcshogOlLyEac8+2XkDVqnWVGaeytXkb
tEJkX6H0P4tu4w+ZI5XDd91SWJQbMgcD+QLiupFteFaBeaC1IYZZydra5P+3rhDh
ndjMHprSUHH/KzmKBdMyUE8P3A2XGrLMAXifHKnKF5ZiGwV98A2delcmEljFsvX4
j0ZK1eBtocscVSzOK7ktVGduPXMzFCSmSgOv
-----END CERTIFICATE-----
