Certificate:
    Data:
        Version: 3 (0x2)
        Serial Number: 47 (0x2f)
    Signature Algorithm: sha256WithRSAEncryption
        Issuer: C=US, ST=OH, L=Cincinnati, O=CDX Project, OU=Dept. Elec. Eng. & Comp. Sys., CN=CDX Project CA/name=EasyRSA/emailAddress=franco@gauss.ececs.uc.edu
        Validity
            Not Before: Nov 19 20:58:52 2017 GMT
            Not After : Nov 17 20:58:52 2027 GMT
        Subject: C=US, ST=OH, L=Cincinnati, O=CDX Project, OU=Dept. Elec. Eng. & Comp. Sys., CN=red-03/name=EasyRSA/emailAddress=franco@gauss.ececs.uc.edu
        Subject Public Key Info:
            Public Key Algorithm: rsaEncryption
                Public-Key: (2048 bit)
                Modulus:
                    00:d6:bf:31:be:03:83:cb:60:a4:44:3a:21:5c:9b:
                    d3:47:2c:94:2f:e1:d2:1b:30:d5:a4:85:69:4a:f9:
                    29:78:e8:81:7d:27:76:c6:ff:32:0f:5d:96:86:48:
                    7f:72:af:3f:71:f8:eb:12:da:b8:30:ba:2a:d6:3e:
                    37:e5:55:47:9e:86:08:a5:8c:e7:45:c1:59:88:e3:
                    8e:60:a4:ff:e6:10:43:eb:cc:4d:82:4a:cd:de:e2:
                    f2:31:48:4c:54:46:32:f2:4e:d7:f5:9f:4d:a2:dc:
                    cc:69:9f:c2:f6:3d:bc:1c:6e:02:6a:2a:bc:5f:81:
                    4f:d2:6b:07:39:8a:9b:e0:2e:c8:1c:9a:00:c7:cf:
                    e5:86:21:9b:09:42:6f:6f:08:4b:7e:1f:6a:c0:52:
                    d9:10:b1:61:35:c1:04:69:d7:55:e4:de:87:aa:8b:
                    dc:0d:6c:e8:47:8a:ab:be:72:bf:23:ca:cd:74:6b:
                    d6:ee:9e:78:51:a4:51:0f:4e:95:27:08:96:6e:a4:
                    ff:77:29:24:60:0f:d6:d7:cd:c0:3c:52:17:c7:77:
                    c9:11:67:19:67:69:ba:ee:42:57:5f:70:83:bf:34:
                    9d:77:1d:f9:45:45:6d:56:ea:0e:78:7a:e0:3e:7a:
                    ce:c2:7b:0a:44:52:80:40:f9:0b:63:b2:28:80:8f:
                    72:6b
                Exponent: 65537 (0x10001)
        X509v3 extensions:
            X509v3 Basic Constraints: 
                CA:FALSE
            Netscape Comment: 
                Easy-RSA Generated Certificate
            X509v3 Subject Key Identifier: 
                B2:28:32:80:0D:FE:90:3F:85:95:29:4C:E8:9D:F3:96:4F:EE:4B:2E
            X509v3 Authority Key Identifier: 
                keyid:13:33:A4:6E:C5:22:56:36:9C:FA:8D:0C:08:AA:29:32:2A:F8:CB:E6
                DirName:/C=US/ST=OH/L=Cincinnati/O=CDX Project/OU=Dept. Elec. Eng. & Comp. Sys./CN=CDX Project CA/name=EasyRSA/emailAddress=franco@gauss.ececs.uc.edu
                serial:BA:A7:AB:B8:0A:47:F3:70

            X509v3 Extended Key Usage: 
                TLS Web Client Authentication
            X509v3 Key Usage: 
                Digital Signature
            X509v3 Subject Alternative Name: 
                DNS:red-03
    Signature Algorithm: sha256WithRSAEncryption
         13:8c:4b:2f:af:6d:6d:e1:f9:a1:17:82:7b:d1:6e:30:a6:ae:
         6e:54:3c:87:3f:cf:9b:8a:8d:49:f2:73:0f:ad:cd:70:b3:95:
         cb:1e:36:36:65:22:13:a8:c8:20:1d:eb:f1:a5:37:ad:8d:0f:
         7c:eb:c6:8e:05:ef:4d:80:b0:aa:3e:2c:b4:5f:83:67:28:1d:
         b8:57:f1:8c:63:37:da:8a:13:b9:7c:b6:0c:c2:07:1a:23:b2:
         75:38:0d:a4:89:fd:7f:f0:79:1a:8f:98:8a:29:06:36:d8:5e:
         47:3b:a0:12:2c:e4:88:65:fa:79:5c:08:5a:72:8b:87:c4:a9:
         af:9f:bb:c1:56:8d:e9:79:d8:e6:bf:f5:db:6e:0d:29:03:65:
         ec:6c:36:cb:a5:e4:1c:5f:81:eb:e0:92:05:e2:e1:76:98:a4:
         7c:4e:e2:5f:fa:b4:0a:97:32:1a:63:0a:20:ca:bd:35:f6:e4:
         4c:4e:ac:6d:fc:a7:a5:53:03:73:58:8d:ce:d1:58:ed:1a:39:
         84:d3:53:3e:4f:fd:97:4c:0b:37:61:62:f5:a3:da:a0:09:e4:
         66:d7:25:92:a8:ee:f7:6d:82:af:28:65:27:30:91:d6:ab:22:
         a6:18:b0:ea:18:a9:6b:c8:f5:3e:21:ea:83:94:48:62:31:c3:
         12:b2:54:82
-----BEGIN CERTIFICATE-----
MIIFhzCCBG+gAwIBAgIBLzANBgkqhkiG9w0BAQsFADCBwjELMAkGA1UEBhMCVVMx
CzAJBgNVBAgTAk9IMRMwEQYDVQQHEwpDaW5jaW5uYXRpMRQwEgYDVQQKEwtDRFgg
UHJvamVjdDEmMCQGA1UECxQdRGVwdC4gRWxlYy4gRW5nLiAmIENvbXAuIFN5cy4x
FzAVBgNVBAMTDkNEWCBQcm9qZWN0IENBMRAwDgYDVQQpEwdFYXN5UlNBMSgwJgYJ
KoZIhvcNAQkBFhlmcmFuY29AZ2F1c3MuZWNlY3MudWMuZWR1MB4XDTE3MTExOTIw
NTg1MloXDTI3MTExNzIwNTg1MlowgboxCzAJBgNVBAYTAlVTMQswCQYDVQQIEwJP
SDETMBEGA1UEBxMKQ2luY2lubmF0aTEUMBIGA1UEChMLQ0RYIFByb2plY3QxJjAk
BgNVBAsUHURlcHQuIEVsZWMuIEVuZy4gJiBDb21wLiBTeXMuMQ8wDQYDVQQDEwZy
ZWQtMDMxEDAOBgNVBCkTB0Vhc3lSU0ExKDAmBgkqhkiG9w0BCQEWGWZyYW5jb0Bn
YXVzcy5lY2Vjcy51Yy5lZHUwggEiMA0GCSqGSIb3DQEBAQUAA4IBDwAwggEKAoIB
AQDWvzG+A4PLYKREOiFcm9NHLJQv4dIbMNWkhWlK+Sl46IF9J3bG/zIPXZaGSH9y
rz9x+OsS2rgwuirWPjflVUeehgiljOdFwVmI445gpP/mEEPrzE2CSs3e4vIxSExU
RjLyTtf1n02i3Mxpn8L2PbwcbgJqKrxfgU/Sawc5ipvgLsgcmgDHz+WGIZsJQm9v
CEt+H2rAUtkQsWE1wQRp11Xk3oeqi9wNbOhHiqu+cr8jys10a9bunnhRpFEPTpUn
CJZupP93KSRgD9bXzcA8UhfHd8kRZxlnabruQldfcIO/NJ13HflFRW1W6g54euA+
es7CewpEUoBA+QtjsiiAj3JrAgMBAAGjggGMMIIBiDAJBgNVHRMEAjAAMC0GCWCG
SAGG+EIBDQQgFh5FYXN5LVJTQSBHZW5lcmF0ZWQgQ2VydGlmaWNhdGUwHQYDVR0O
BBYEFLIoMoAN/pA/hZUpTOid85ZP7ksuMIH3BgNVHSMEge8wgeyAFBMzpG7FIlY2
nPqNDAiqKTIq+MvmoYHIpIHFMIHCMQswCQYDVQQGEwJVUzELMAkGA1UECBMCT0gx
EzARBgNVBAcTCkNpbmNpbm5hdGkxFDASBgNVBAoTC0NEWCBQcm9qZWN0MSYwJAYD
VQQLFB1EZXB0LiBFbGVjLiBFbmcuICYgQ29tcC4gU3lzLjEXMBUGA1UEAxMOQ0RY
IFByb2plY3QgQ0ExEDAOBgNVBCkTB0Vhc3lSU0ExKDAmBgkqhkiG9w0BCQEWGWZy
YW5jb0BnYXVzcy5lY2Vjcy51Yy5lZHWCCQC6p6u4CkfzcDATBgNVHSUEDDAKBggr
BgEFBQcDAjALBgNVHQ8EBAMCB4AwEQYDVR0RBAowCIIGcmVkLTAzMA0GCSqGSIb3
DQEBCwUAA4IBAQATjEsvr21t4fmhF4J70W4wpq5uVDyHP8+bio1J8nMPrc1ws5XL
HjY2ZSITqMggHevxpTetjQ9868aOBe9NgLCqPiy0X4NnKB24V/GMYzfaihO5fLYM
wgcaI7J1OA2kif1/8Hkaj5iKKQY22F5HO6ASLOSIZfp5XAhacouHxKmvn7vBVo3p
edjmv/Xbbg0pA2XsbDbLpeQcX4Hr4JIF4uF2mKR8TuJf+rQKlzIaYwogyr019uRM
Tqxt/KelUwNzWI3O0VjtGjmE01M+T/2XTAs3YWL1o9qgCeRm1yWSqO73bYKvKGUn
MJHWqyKmGLDqGKlryPU+IeqDlEhiMcMSslSC
-----END CERTIFICATE-----
